target datalayout = "e-m:e-p270:32:32-p271:32:32-p272:64:64-i64:64-i128:128-f80:128-n8:16:32:64-S128"
target triple = "x86_64-pc-linux-gnu"

%struct.dlist_head = type { %struct.dlist_node }
%struct.dlist_node = type { ptr, ptr }
%struct.ReorderBufferIterTXNState = type { ptr, i64, %struct.dlist_head, [0 x %struct.ReorderBufferIterTXNEntry] }
%struct.ReorderBufferIterTXNEntry = type { i64, ptr, ptr, %struct.TXNEntryFile, i64 }
%struct.TXNEntryFile = type { i32, i64 }

; Function Attrs: inlinehint nounwind uwtable
define internal i32 @DatumGetInt32(i64 noundef %0) #4 {
  %2 = alloca i64, align 8
  store i64 %0, ptr %2, align 8
  %3 = load i64, ptr %2, align 8
  %4 = trunc i64 %3 to i32
  ret i32 %4
}

; Function Attrs: nounwind uwtable
define internal i32 @ReorderBufferIterCompare(i64 noundef %0, i64 noundef %1, ptr noundef %2) #0 {
  %4 = alloca i32, align 4
  %5 = alloca i64, align 8
  %6 = alloca i64, align 8
  %7 = alloca ptr, align 8
  %8 = alloca ptr, align 8
  %9 = alloca i64, align 8
  %10 = alloca i64, align 8
  %11 = alloca i32, align 4
  store i64 %0, ptr %5, align 8
  store i64 %1, ptr %6, align 8
  store ptr %2, ptr %7, align 8
  call void @llvm.lifetime.start.p0(i64 8, ptr %8) #13
  %12 = load ptr, ptr %7, align 8
  store ptr %12, ptr %8, align 8
  call void @llvm.lifetime.start.p0(i64 8, ptr %9) #13
  %13 = load ptr, ptr %8, align 8
  %14 = getelementptr inbounds nuw %struct.ReorderBufferIterTXNState, ptr %13, i32 0, i32 3
  %15 = load i64, ptr %5, align 8
  %16 = call i32 @DatumGetInt32(i64 noundef %15)
  %17 = sext i32 %16 to i64
  %18 = getelementptr inbounds [0 x %struct.ReorderBufferIterTXNEntry], ptr %14, i64 0, i64 %17
  %19 = getelementptr inbounds nuw %struct.ReorderBufferIterTXNEntry, ptr %18, i32 0, i32 0
  %20 = load i64, ptr %19, align 8
  store i64 %20, ptr %9, align 8
  call void @llvm.lifetime.start.p0(i64 8, ptr %10) #13
  %21 = load ptr, ptr %8, align 8
  %22 = getelementptr inbounds nuw %struct.ReorderBufferIterTXNState, ptr %21, i32 0, i32 3
  %23 = load i64, ptr %6, align 8
  %24 = call i32 @DatumGetInt32(i64 noundef %23)
  %25 = sext i32 %24 to i64
  %26 = getelementptr inbounds [0 x %struct.ReorderBufferIterTXNEntry], ptr %22, i64 0, i64 %25
  %27 = getelementptr inbounds nuw %struct.ReorderBufferIterTXNEntry, ptr %26, i32 0, i32 0
  %28 = load i64, ptr %27, align 8
  store i64 %28, ptr %10, align 8
  %29 = load i64, ptr %9, align 8
  %30 = load i64, ptr %10, align 8
  %31 = icmp ult i64 %29, %30
  br i1 %31, label %32, label %33

32:                                               ; preds = %3
  store i32 1, ptr %4, align 4
  store i32 1, ptr %11, align 4
  br label %40

33:                                               ; preds = %3
  %34 = load i64, ptr %9, align 8
  %35 = load i64, ptr %10, align 8
  %36 = icmp eq i64 %34, %35
  br i1 %36, label %37, label %38

37:                                               ; preds = %33
  store i32 0, ptr %4, align 4
  store i32 1, ptr %11, align 4
  br label %40

38:                                               ; preds = %33
  br label %39

39:                                               ; preds = %38
  store i32 -1, ptr %4, align 4
  store i32 1, ptr %11, align 4
  br label %40

40:                                               ; preds = %39, %37, %32
  call void @llvm.lifetime.end.p0(i64 8, ptr %10) #13
  call void @llvm.lifetime.end.p0(i64 8, ptr %9) #13
  call void @llvm.lifetime.end.p0(i64 8, ptr %8) #13
  %41 = load i32, ptr %4, align 4
  ret i32 %41
}