; Function Attrs: mustprogress nofree norecurse nosync nounwind willreturn memory(argmem: read) uwtable
define internal range(i32 -1, 2) i32 @ReorderBufferIterCompare(i64 noundef %0, i64 noundef %1, ptr noundef readonly captures(none) %2) #4 {
  %4 = getelementptr inbounds nuw i8, ptr %2, i64 32
  %sext = shl i64 %0, 32
  %5 = ashr exact i64 %sext, 32
  %6 = getelementptr inbounds [0 x %struct.ReorderBufferIterTXNEntry], ptr %4, i64 0, i64 %5
  %7 = load i64, ptr %6, align 8
  %sext11 = shl i64 %1, 32
  %8 = ashr exact i64 %sext11, 32
  %9 = getelementptr inbounds [0 x %struct.ReorderBufferIterTXNEntry], ptr %4, i64 0, i64 %8
  %10 = load i64, ptr %9, align 8
  %.0 = tail call i32 @llvm.ucmp.i32.i64(i64 %10, i64 %7)
  ret i32 %.0
}